target datalayout = "e-m:e-p270:32:32-p271:32:32-p272:64:64-i64:64-i128:128-f80:128-n8:16:32:64-S128"
target triple = "x86_64-pc-linux-gnu"

%"class.sentencepiece::unigram::Lattice" = type { ptr, %"class.std::basic_string_view", %"class.std::vector", %"class.std::vector.0", %"class.std::vector.0", %"class.sentencepiece::model::FreeList" }
%"class.std::basic_string_view" = type { i64, ptr }
%"class.std::vector" = type { %"struct.std::_Vector_base" }
%"struct.std::_Vector_base" = type { %"struct.std::_Vector_base<const char *, std::allocator<const char *>>::_Vector_impl" }
%"struct.std::_Vector_base<const char *, std::allocator<const char *>>::_Vector_impl" = type { %"struct.std::_Vector_base<const char *, std::allocator<const char *>>::_Vector_impl_data" }
%"struct.std::_Vector_base<const char *, std::allocator<const char *>>::_Vector_impl_data" = type { ptr, ptr, ptr }
%"class.std::vector.0" = type { %"struct.std::_Vector_base.1" }
%"struct.std::_Vector_base.1" = type { %"struct.std::_Vector_base<std::vector<sentencepiece::unigram::Lattice::Node *>, std::allocator<std::vector<sentencepiece::unigram::Lattice::Node *>>>::_Vector_impl" }
%"struct.std::_Vector_base<std::vector<sentencepiece::unigram::Lattice::Node *>, std::allocator<std::vector<sentencepiece::unigram::Lattice::Node *>>>::_Vector_impl" = type { %"struct.std::_Vector_base<std::vector<sentencepiece::unigram::Lattice::Node *>, std::allocator<std::vector<sentencepiece::unigram::Lattice::Node *>>>::_Vector_impl_data" }
%"struct.std::_Vector_base<std::vector<sentencepiece::unigram::Lattice::Node *>, std::allocator<std::vector<sentencepiece::unigram::Lattice::Node *>>>::_Vector_impl_data" = type { ptr, ptr, ptr }
%"class.sentencepiece::model::FreeList" = type { ptr, %"class.std::vector.5", i64, i64, i64 }
%"class.std::vector.5" = type { %"struct.std::_Vector_base.6" }
%"struct.std::_Vector_base.6" = type { %"struct.std::_Vector_base<sentencepiece::unigram::Lattice::Node *, std::allocator<sentencepiece::unigram::Lattice::Node *>>::_Vector_impl" }
%"struct.std::_Vector_base<sentencepiece::unigram::Lattice::Node *, std::allocator<sentencepiece::unigram::Lattice::Node *>>::_Vector_impl" = type { %"struct.std::_Vector_base<sentencepiece::unigram::Lattice::Node *, std::allocator<sentencepiece::unigram::Lattice::Node *>>::_Vector_impl_data" }
%"struct.std::_Vector_base<sentencepiece::unigram::Lattice::Node *, std::allocator<sentencepiece::unigram::Lattice::Node *>>::_Vector_impl_data" = type { ptr, ptr, ptr }

@_ZN13sentencepiece7unigram7LatticeC1Ev = unnamed_addr alias void (ptr), ptr @_ZN13sentencepiece7unigram7LatticeC2Ev
@_ZN13sentencepiece7unigram7LatticeD1Ev = unnamed_addr alias void (ptr), ptr @_ZN13sentencepiece7unigram7LatticeD2Ev

; Function Attrs: mustprogress uwtable
define noundef float @_ZNK13sentencepiece7unigram5Model16CalculateEntropyESt17basic_string_viewIcSt11char_traitsIcEEf(ptr noundef nonnull align 8 dereferenceable(176) %0, i64 %1, ptr %2, float noundef %3) unnamed_addr #4 align 2 personality ptr @__gxx_personality_v0 {
  %5 = alloca %"class.std::basic_string_view", align 8
  %6 = alloca ptr, align 8
  %7 = alloca float, align 4
  %8 = alloca %"class.sentencepiece::unigram::Lattice", align 8
  %9 = alloca %"class.std::basic_string_view", align 8
  %10 = alloca ptr, align 8
  %11 = alloca i32, align 4
  %12 = getelementptr inbounds nuw { i64, ptr }, ptr %5, i32 0, i32 0
  store i64 %1, ptr %12, align 8
  %13 = getelementptr inbounds nuw { i64, ptr }, ptr %5, i32 0, i32 1
  store ptr %2, ptr %13, align 8
  store ptr %0, ptr %6, align 8, !tbaa !172
  store float %3, ptr %7, align 4, !tbaa !69
  %14 = load ptr, ptr %6, align 8
  call void @llvm.lifetime.start.p0(i64 152, ptr %8) #3
  call void @_ZN13sentencepiece7unigram7LatticeC1Ev(ptr noundef nonnull align 8 dereferenceable(152) %8)
  call void @llvm.memcpy.p0.p0.i64(ptr align 8 %9, ptr align 8 %5, i64 16, i1 false), !tbaa.struct !55
  %15 = getelementptr inbounds nuw { i64, ptr }, ptr %9, i32 0, i32 0
  %16 = load i64, ptr %15, align 8
  %17 = getelementptr inbounds nuw { i64, ptr }, ptr %9, i32 0, i32 1
  %18 = load ptr, ptr %17, align 8
  invoke void @_ZN13sentencepiece7unigram7Lattice11SetSentenceESt17basic_string_viewIcSt11char_traitsIcEE(ptr noundef nonnull align 8 dereferenceable(152) %8, i64 %16, ptr %18)
          to label %19 unwind label %24

19:                                               ; preds = %4
  invoke void @_ZNK13sentencepiece7unigram5Model13PopulateNodesEPNS0_7LatticeE(ptr noundef nonnull align 8 dereferenceable(176) %14, ptr noundef %8)
          to label %20 unwind label %24

20:                                               ; preds = %19
  %21 = load float, ptr %7, align 4, !tbaa !69
  %22 = invoke noundef float @_ZNK13sentencepiece7unigram7Lattice16CalculateEntropyEf(ptr noundef nonnull align 8 dereferenceable(152) %8, float noundef %21)
          to label %23 unwind label %24

23:                                               ; preds = %20
  call void @_ZN13sentencepiece7unigram7LatticeD1Ev(ptr noundef nonnull align 8 dereferenceable(152) %8) #3
  call void @llvm.lifetime.end.p0(i64 152, ptr %8) #3
  ret float %22

24:                                               ; preds = %20, %19, %4
  %25 = landingpad { ptr, i32 }
          cleanup
  %26 = extractvalue { ptr, i32 } %25, 0
  store ptr %26, ptr %10, align 8
  %27 = extractvalue { ptr, i32 } %25, 1
  store i32 %27, ptr %11, align 4
  call void @_ZN13sentencepiece7unigram7LatticeD1Ev(ptr noundef nonnull align 8 dereferenceable(152) %8) #3
  call void @llvm.lifetime.end.p0(i64 152, ptr %8) #3
  br label %28

28:                                               ; preds = %24
  %29 = load ptr, ptr %10, align 8
  %30 = load i32, ptr %11, align 4
  %31 = insertvalue { ptr, i32 } poison, ptr %29, 0
  %32 = insertvalue { ptr, i32 } %31, i32 %30, 1
  resume { ptr, i32 } %32
}