; Function Attrs: mustprogress uwtable
define noundef float @_ZNK13sentencepiece7unigram5Model16CalculateEntropyESt17basic_string_viewIcSt11char_traitsIcEEf(ptr noundef nonnull readonly align 8 captures(none) dereferenceable(176) %0, i64 %1, ptr %2, float noundef %3) unnamed_addr #9 align 2 personality ptr @__gxx_personality_v0 {
  %5 = alloca %"class.sentencepiece::unigram::Lattice", align 8
  call void @llvm.lifetime.start.p0(i64 152, ptr nonnull %5) #29
  call void @_ZN13sentencepiece7unigram7LatticeC1Ev(ptr noundef nonnull align 8 dereferenceable(152) %5)
  invoke void @_ZN13sentencepiece7unigram7Lattice11SetSentenceESt17basic_string_viewIcSt11char_traitsIcEE(ptr noundef nonnull align 8 dereferenceable(152) %5, i64 %1, ptr %2)
          to label %6 unwind label %10

6:                                                ; preds = %4
  invoke void @_ZNK13sentencepiece7unigram5Model13PopulateNodesEPNS0_7LatticeE(ptr noundef nonnull align 8 dereferenceable(176) %0, ptr noundef nonnull %5)
          to label %7 unwind label %10

7:                                                ; preds = %6
  %8 = invoke noundef float @_ZNK13sentencepiece7unigram7Lattice16CalculateEntropyEf(ptr noundef nonnull align 8 dereferenceable(152) %5, float noundef %3)
          to label %9 unwind label %10

9:                                                ; preds = %7
  call void @_ZN13sentencepiece7unigram7LatticeD1Ev(ptr noundef nonnull align 8 dereferenceable(152) %5) #29
  call void @llvm.lifetime.end.p0(i64 152, ptr nonnull %5) #29
  ret float %8

10:                                               ; preds = %7, %6, %4
  %11 = landingpad { ptr, i32 }
          cleanup
  call void @_ZN13sentencepiece7unigram7LatticeD1Ev(ptr noundef nonnull align 8 dereferenceable(152) %5) #29
  call void @llvm.lifetime.end.p0(i64 152, ptr nonnull %5) #29
  resume { ptr, i32 } %11
}